target datalayout = "e-m:e-p270:32:32-p271:32:32-p272:64:64-i64:64-i128:128-f80:128-n8:16:32:64-S128"
target triple = "x86_64-pc-linux-gnu"

%struct.Vec_Int_t_ = type { i32, i32, ptr }
%struct.Zyx_Man_t_ = type { ptr, ptr, i32, i32, i32, i32, i32, ptr, ptr, ptr, ptr, ptr, ptr, [2 x i32], [32 x [32 x i32]], [2 x [64 x i32]], [2 x i32], [1024 x i32], ptr, i64 }
%struct.Bmc_EsPar_t_ = type { i32, i32, i32, i32, i32, i32, i32, i32, i32, i32, i32, i32, i32, i32, i32, i32, i32, ptr }

@.str.2 = private unnamed_addr constant [7 x i8] c"      \00", align 1
@.str.3 = private unnamed_addr constant [6 x i8] c"%3d  \00", align 1
@.str.4 = private unnamed_addr constant [2 x i8] c"\0A\00", align 1
@.str.9 = private unnamed_addr constant [7 x i8] c"%3d%c \00", align 1
@.str.21 = private unnamed_addr constant [7 x i8] c"%3d   \00", align 1
@.str.22 = private unnamed_addr constant [86 x i8] c"Using %d active functionality vars and %d active topology vars (out of %d SAT vars).\0A\00", align 1

; Function Attrs: nounwind uwtable
define internal i32 @Vec_IntEntry(ptr noundef %0, i32 noundef %1) #0 {
  %3 = alloca ptr, align 8
  %4 = alloca i32, align 4
  store ptr %0, ptr %3, align 8
  store i32 %1, ptr %4, align 4
  %5 = load ptr, ptr %3, align 8
  %6 = getelementptr inbounds %struct.Vec_Int_t_, ptr %5, i32 0, i32 2
  %7 = load ptr, ptr %6, align 8
  %8 = load i32, ptr %4, align 4
  %9 = sext i32 %8 to i64
  %10 = getelementptr inbounds i32, ptr %7, i64 %9
  %11 = load i32, ptr %10, align 4
  ret i32 %11
}

; Function Attrs: nounwind uwtable
define internal i32 @Zyx_TopoVar(ptr noundef %0, i32 noundef %1, i32 noundef %2) #0 {
  %4 = alloca ptr, align 8
  %5 = alloca i32, align 4
  %6 = alloca i32, align 4
  store ptr %0, ptr %4, align 8
  store i32 %1, ptr %5, align 4
  store i32 %2, ptr %6, align 4
  %7 = load ptr, ptr %4, align 8
  %8 = getelementptr inbounds %struct.Zyx_Man_t_, ptr %7, i32 0, i32 5
  %9 = load i32, ptr %8, align 4
  %10 = load ptr, ptr %4, align 8
  %11 = getelementptr inbounds %struct.Zyx_Man_t_, ptr %10, i32 0, i32 2
  %12 = load i32, ptr %11, align 8
  %13 = load i32, ptr %5, align 4
  %14 = load ptr, ptr %4, align 8
  %15 = getelementptr inbounds %struct.Zyx_Man_t_, ptr %14, i32 0, i32 0
  %16 = load ptr, ptr %15, align 8
  %17 = getelementptr inbounds %struct.Bmc_EsPar_t_, ptr %16, i32 0, i32 0
  %18 = load i32, ptr %17, align 8
  %19 = sub nsw i32 %13, %18
  %20 = mul nsw i32 %12, %19
  %21 = add nsw i32 %9, %20
  %22 = load i32, ptr %6, align 4
  %23 = add nsw i32 %21, %22
  ret i32 %23
}

; Function Attrs: nounwind uwtable
define void @Zyx_ManPrintVarMap(ptr noundef %0, i32 noundef %1) #0 {
  %3 = alloca ptr, align 8
  %4 = alloca i32, align 4
  %5 = alloca i32, align 4
  %6 = alloca i32, align 4
  %7 = alloca i32, align 4
  %8 = alloca i32, align 4
  store ptr %0, ptr %3, align 8
  store i32 %1, ptr %4, align 4
  store i32 0, ptr %7, align 4
  %9 = call i32 (ptr, ...) @printf(ptr noundef @.str.2)
  store i32 0, ptr %6, align 4
  br label %10

10:                                               ; preds = %20, %2
  %11 = load i32, ptr %6, align 4
  %12 = load ptr, ptr %3, align 8
  %13 = getelementptr inbounds %struct.Zyx_Man_t_, ptr %12, i32 0, i32 2
  %14 = load i32, ptr %13, align 8
  %15 = sub nsw i32 %14, 1
  %16 = icmp slt i32 %11, %15
  br i1 %16, label %17, label %23

17:                                               ; preds = %10
  %18 = load i32, ptr %6, align 4
  %19 = call i32 (ptr, ...) @printf(ptr noundef @.str.3, i32 noundef %18)
  br label %20

20:                                               ; preds = %17
  %21 = load i32, ptr %6, align 4
  %22 = add nsw i32 %21, 1
  store i32 %22, ptr %6, align 4
  br label %10, !llvm.loop !59

23:                                               ; preds = %10
  %24 = call i32 (ptr, ...) @printf(ptr noundef @.str.4)
  %25 = load ptr, ptr %3, align 8
  %26 = getelementptr inbounds %struct.Zyx_Man_t_, ptr %25, i32 0, i32 2
  %27 = load i32, ptr %26, align 8
  %28 = sub nsw i32 %27, 1
  store i32 %28, ptr %5, align 4
  br label %29

29:                                               ; preds = %88, %23
  %30 = load i32, ptr %5, align 4
  %31 = load ptr, ptr %3, align 8
  %32 = getelementptr inbounds %struct.Zyx_Man_t_, ptr %31, i32 0, i32 0
  %33 = load ptr, ptr %32, align 8
  %34 = getelementptr inbounds %struct.Bmc_EsPar_t_, ptr %33, i32 0, i32 0
  %35 = load i32, ptr %34, align 8
  %36 = icmp sge i32 %30, %35
  br i1 %36, label %37, label %91

37:                                               ; preds = %29
  %38 = load i32, ptr %5, align 4
  %39 = call i32 (ptr, ...) @printf(ptr noundef @.str.21, i32 noundef %38)
  store i32 0, ptr %6, align 4
  br label %40

40:                                               ; preds = %83, %37
  %41 = load i32, ptr %6, align 4
  %42 = load ptr, ptr %3, align 8
  %43 = getelementptr inbounds %struct.Zyx_Man_t_, ptr %42, i32 0, i32 2
  %44 = load i32, ptr %43, align 8
  %45 = sub nsw i32 %44, 1
  %46 = icmp slt i32 %41, %45
  br i1 %46, label %47, label %86

47:                                               ; preds = %40
  %48 = load ptr, ptr %3, align 8
  %49 = load i32, ptr %5, align 4
  %50 = load i32, ptr %6, align 4
  %51 = call i32 @Zyx_TopoVar(ptr noundef %48, i32 noundef %49, i32 noundef %50)
  store i32 %51, ptr %8, align 4
  %52 = load ptr, ptr %3, align 8
  %53 = getelementptr inbounds %struct.Zyx_Man_t_, ptr %52, i32 0, i32 8
  %54 = load ptr, ptr %53, align 8
  %55 = load i32, ptr %8, align 4
  %56 = call i32 @Vec_IntEntry(ptr noundef %54, i32 noundef %55)
  %57 = icmp eq i32 %56, -1
  br i1 %57, label %58, label %75

58:                                               ; preds = %47
  %59 = load i32, ptr %8, align 4
  %60 = load i32, ptr %4, align 4
  %61 = icmp ne i32 %60, 0
  br i1 %61, label %62, label %69

62:                                               ; preds = %58
  %63 = load ptr, ptr %3, align 8
  %64 = getelementptr inbounds %struct.Zyx_Man_t_, ptr %63, i32 0, i32 18
  %65 = load ptr, ptr %64, align 8
  %66 = load i32, ptr %8, align 4
  %67 = call i32 @bmcg_sat_solver_read_cex_varvalue(ptr noundef %65, i32 noundef %66)
  %68 = icmp ne i32 %67, 0
  br label %69

69:                                               ; preds = %62, %58
  %70 = phi i1 [ false, %58 ], [ %68, %62 ]
  %71 = select i1 %70, i32 42, i32 32
  %72 = call i32 (ptr, ...) @printf(ptr noundef @.str.9, i32 noundef %59, i32 noundef %71)
  %73 = load i32, ptr %7, align 4
  %74 = add nsw i32 %73, 1
  store i32 %74, ptr %7, align 4
  br label %82

75:                                               ; preds = %47
  %76 = load ptr, ptr %3, align 8
  %77 = getelementptr inbounds %struct.Zyx_Man_t_, ptr %76, i32 0, i32 8
  %78 = load ptr, ptr %77, align 8
  %79 = load i32, ptr %8, align 4
  %80 = call i32 @Vec_IntEntry(ptr noundef %78, i32 noundef %79)
  %81 = call i32 (ptr, ...) @printf(ptr noundef @.str.3, i32 noundef %80)
  br label %82

82:                                               ; preds = %75, %69
  br label %83

83:                                               ; preds = %82
  %84 = load i32, ptr %6, align 4
  %85 = add nsw i32 %84, 1
  store i32 %85, ptr %6, align 4
  br label %40, !llvm.loop !60

86:                                               ; preds = %40
  %87 = call i32 (ptr, ...) @printf(ptr noundef @.str.4)
  br label %88

88:                                               ; preds = %86
  %89 = load i32, ptr %5, align 4
  %90 = add nsw i32 %89, -1
  store i32 %90, ptr %5, align 4
  br label %29, !llvm.loop !61

91:                                               ; preds = %29
  %92 = load i32, ptr %4, align 4
  %93 = icmp ne i32 %92, 0
  br i1 %93, label %94, label %95

94:                                               ; preds = %91
  br label %121

95:                                               ; preds = %91
  %96 = load ptr, ptr %3, align 8
  %97 = getelementptr inbounds %struct.Zyx_Man_t_, ptr %96, i32 0, i32 0
  %98 = load ptr, ptr %97, align 8
  %99 = getelementptr inbounds %struct.Bmc_EsPar_t_, ptr %98, i32 0, i32 4
  %100 = load i32, ptr %99, align 8
  %101 = icmp ne i32 %100, 0
  br i1 %101, label %102, label %103

102:                                              ; preds = %95
  br label %113

103:                                              ; preds = %95
  %104 = load ptr, ptr %3, align 8
  %105 = getelementptr inbounds %struct.Zyx_Man_t_, ptr %104, i32 0, i32 0
  %106 = load ptr, ptr %105, align 8
  %107 = getelementptr inbounds %struct.Bmc_EsPar_t_, ptr %106, i32 0, i32 1
  %108 = load i32, ptr %107, align 4
  %109 = load ptr, ptr %3, align 8
  %110 = getelementptr inbounds %struct.Zyx_Man_t_, ptr %109, i32 0, i32 4
  %111 = load i32, ptr %110, align 8
  %112 = mul nsw i32 %108, %111
  br label %113

113:                                              ; preds = %103, %102
  %114 = phi i32 [ 0, %102 ], [ %112, %103 ]
  %115 = load i32, ptr %7, align 4
  %116 = load ptr, ptr %3, align 8
  %117 = getelementptr inbounds %struct.Zyx_Man_t_, ptr %116, i32 0, i32 18
  %118 = load ptr, ptr %117, align 8
  %119 = call i32 @bmcg_sat_solver_varnum(ptr noundef %118)
  %120 = call i32 (ptr, ...) @printf(ptr noundef @.str.22, i32 noundef %114, i32 noundef %115, i32 noundef %119)
  br label %121

121:                                              ; preds = %113, %94
  ret void
}